; Function Attrs: mustprogress uwtable
define noundef zeroext i1 @_ZN3nix10LegacyArgs11processFlagERSt14_List_iteratorINSt7__cxx1112basic_stringIcSt11char_traitsIcESaIcEEEES8_(ptr noundef nonnull align 8 dereferenceable(200) %0, ptr noundef nonnull align 8 dereferenceable(8) %1, ptr %2) unnamed_addr #5 align 2 {
  %4 = alloca %"struct.std::_List_iterator", align 8
  store ptr %2, ptr %4, align 8
  %5 = load ptr, ptr %0, align 8
  %6 = getelementptr i8, ptr %5, i64 -24
  %7 = load i64, ptr %6, align 8
  %8 = getelementptr inbounds i8, ptr %0, i64 %7
  %9 = tail call noundef zeroext i1 @_ZN3nix4Args11processFlagERSt14_List_iteratorINSt7__cxx1112basic_stringIcSt11char_traitsIcESaIcEEEES8_(ptr noundef nonnull align 8 dereferenceable(208) %8, ptr noundef nonnull align 8 dereferenceable(8) %1, ptr %2)
  br i1 %9, label %21, label %10

10:                                               ; preds = %3
  %11 = getelementptr inbounds i8, ptr %0, i64 184
  %12 = load ptr, ptr %11, align 8
  %.not.i.i = icmp eq ptr %12, null
  br i1 %.not.i.i, label %13, label %_ZNKSt8functionIFbRSt14_List_iteratorINSt7__cxx1112basic_stringIcSt11char_traitsIcESaIcEEEERKS7_EEclES8_SA_.exit

13:                                               ; preds = %10
  tail call void @_ZSt25__throw_bad_function_callv() #31
  unreachable

_ZNKSt8functionIFbRSt14_List_iteratorINSt7__cxx1112basic_stringIcSt11char_traitsIcESaIcEEEERKS7_EEclES8_SA_.exit: ; preds = %10
  %14 = getelementptr inbounds i8, ptr %0, i64 168
  %15 = getelementptr inbounds i8, ptr %0, i64 192
  %16 = load ptr, ptr %15, align 8
  %17 = call noundef zeroext i1 %16(ptr noundef nonnull align 8 dereferenceable(16) %14, ptr noundef nonnull align 8 dereferenceable(8) %1, ptr noundef nonnull align 8 dereferenceable(8) %4)
  br i1 %17, label %18, label %21

18:                                               ; preds = %_ZNKSt8functionIFbRSt14_List_iteratorINSt7__cxx1112basic_stringIcSt11char_traitsIcESaIcEEEERKS7_EEclES8_SA_.exit
  %19 = load ptr, ptr %1, align 8
  %20 = load ptr, ptr %19, align 8
  store ptr %20, ptr %1, align 8
  br label %21

21:                                               ; preds = %_ZNKSt8functionIFbRSt14_List_iteratorINSt7__cxx1112basic_stringIcSt11char_traitsIcESaIcEEEERKS7_EEclES8_SA_.exit, %18, %3
  %.0 = phi i1 [ true, %3 ], [ true, %18 ], [ false, %_ZNKSt8functionIFbRSt14_List_iteratorINSt7__cxx1112basic_stringIcSt11char_traitsIcESaIcEEEERKS7_EEclES8_SA_.exit ]
  ret i1 %.0
}